target datalayout = "e-m:e-p270:32:32-p271:32:32-p272:64:64-i64:64-i128:128-f80:128-n8:16:32:64-S128"
target triple = "x86_64-pc-linux-gnu"

%struct.FilterParams = type { i32, double, ptr, ptr, ptr }

; Function Attrs: alwaysinline nounwind willreturn memory(none) uwtable
define internal i32 @av_clip_uintp2_c(i32 noundef %0, i32 noundef %1) #7 {
  %3 = alloca i32, align 4
  %4 = alloca i32, align 4
  %5 = alloca i32, align 4
  store i32 %0, ptr %4, align 4, !tbaa !37
  store i32 %1, ptr %5, align 4, !tbaa !37
  %6 = load i32, ptr %4, align 4, !tbaa !37
  %7 = load i32, ptr %5, align 4, !tbaa !37
  %8 = shl i32 1, %7
  %9 = sub i32 %8, 1
  %10 = xor i32 %9, -1
  %11 = and i32 %6, %10
  %12 = icmp ne i32 %11, 0
  br i1 %12, label %13, label %21

13:                                               ; preds = %2
  %14 = load i32, ptr %4, align 4, !tbaa !37
  %15 = xor i32 %14, -1
  %16 = ashr i32 %15, 31
  %17 = load i32, ptr %5, align 4, !tbaa !37
  %18 = shl i32 1, %17
  %19 = sub i32 %18, 1
  %20 = and i32 %16, %19
  store i32 %20, ptr %3, align 4
  br label %23

21:                                               ; preds = %2
  %22 = load i32, ptr %4, align 4, !tbaa !37
  store i32 %22, ptr %3, align 4
  br label %23

23:                                               ; preds = %21, %13
  %24 = load i32, ptr %3, align 4
  ret i32 %24
}

; Function Attrs: nounwind uwtable
define internal void @blend_softdifference_16bit(ptr noundef %0, i64 noundef %1, ptr noundef %2, i64 noundef %3, ptr noundef %4, i64 noundef %5, i64 noundef %6, i64 noundef %7, ptr noundef %8, ptr noundef %9) #0 {
  %11 = alloca ptr, align 8
  %12 = alloca i64, align 8
  %13 = alloca ptr, align 8
  %14 = alloca i64, align 8
  %15 = alloca ptr, align 8
  %16 = alloca i64, align 8
  %17 = alloca i64, align 8
  %18 = alloca i64, align 8
  %19 = alloca ptr, align 8
  %20 = alloca ptr, align 8
  %21 = alloca ptr, align 8
  %22 = alloca ptr, align 8
  %23 = alloca ptr, align 8
  %24 = alloca float, align 4
  %25 = alloca i32, align 4
  %26 = alloca i32, align 4
  %27 = alloca i32, align 4
  store ptr %0, ptr %11, align 8, !tbaa !46
  store i64 %1, ptr %12, align 8, !tbaa !88
  store ptr %2, ptr %13, align 8, !tbaa !46
  store i64 %3, ptr %14, align 8, !tbaa !88
  store ptr %4, ptr %15, align 8, !tbaa !46
  store i64 %5, ptr %16, align 8, !tbaa !88
  store i64 %6, ptr %17, align 8, !tbaa !88
  store i64 %7, ptr %18, align 8, !tbaa !88
  store ptr %8, ptr %19, align 8, !tbaa !77
  store ptr %9, ptr %20, align 8, !tbaa !89
  call void @llvm.lifetime.start.p0(i64 8, ptr %21) #12
  %28 = load ptr, ptr %11, align 8, !tbaa !46
  store ptr %28, ptr %21, align 8, !tbaa !103
  call void @llvm.lifetime.start.p0(i64 8, ptr %22) #12
  %29 = load ptr, ptr %13, align 8, !tbaa !46
  store ptr %29, ptr %22, align 8, !tbaa !103
  call void @llvm.lifetime.start.p0(i64 8, ptr %23) #12
  %30 = load ptr, ptr %15, align 8, !tbaa !46
  store ptr %30, ptr %23, align 8, !tbaa !103
  call void @llvm.lifetime.start.p0(i64 4, ptr %24) #12
  %31 = load ptr, ptr %19, align 8, !tbaa !77
  %32 = getelementptr inbounds nuw %struct.FilterParams, ptr %31, i32 0, i32 1
  %33 = load double, ptr %32, align 8, !tbaa !82
  %34 = fptrunc nsz double %33 to float
  store float %34, ptr %24, align 4, !tbaa !99
  %35 = load i64, ptr %16, align 8, !tbaa !88
  %36 = udiv i64 %35, 2
  store i64 %36, ptr %16, align 8, !tbaa !88
  %37 = load i64, ptr %12, align 8, !tbaa !88
  %38 = udiv i64 %37, 2
  store i64 %38, ptr %12, align 8, !tbaa !88
  %39 = load i64, ptr %14, align 8, !tbaa !88
  %40 = udiv i64 %39, 2
  store i64 %40, ptr %14, align 8, !tbaa !88
  call void @llvm.lifetime.start.p0(i64 4, ptr %25) #12
  store i32 0, ptr %25, align 4, !tbaa !37
  br label %41

41:                                               ; preds = %173, %10
  %42 = load i32, ptr %25, align 4, !tbaa !37
  %43 = sext i32 %42 to i64
  %44 = load i64, ptr %18, align 8, !tbaa !88
  %45 = icmp slt i64 %43, %44
  br i1 %45, label %47, label %46

46:                                               ; preds = %41
  store i32 2, ptr %26, align 4
  call void @llvm.lifetime.end.p0(i64 4, ptr %25) #12
  br label %176

47:                                               ; preds = %41
  call void @llvm.lifetime.start.p0(i64 4, ptr %27) #12
  store i32 0, ptr %27, align 4, !tbaa !37
  br label %48

48:                                               ; preds = %160, %47
  %49 = load i32, ptr %27, align 4, !tbaa !37
  %50 = sext i32 %49 to i64
  %51 = load i64, ptr %17, align 8, !tbaa !88
  %52 = icmp slt i64 %50, %51
  br i1 %52, label %54, label %53

53:                                               ; preds = %48
  store i32 5, ptr %26, align 4
  call void @llvm.lifetime.end.p0(i64 4, ptr %27) #12
  br label %163

54:                                               ; preds = %48
  %55 = load ptr, ptr %21, align 8, !tbaa !103
  %56 = load i32, ptr %27, align 4, !tbaa !37
  %57 = sext i32 %56 to i64
  %58 = getelementptr inbounds i16, ptr %55, i64 %57
  %59 = load i16, ptr %58, align 2, !tbaa !105
  %60 = zext i16 %59 to i32
  %61 = sitofp i32 %60 to float
  %62 = load ptr, ptr %21, align 8, !tbaa !103
  %63 = load i32, ptr %27, align 4, !tbaa !37
  %64 = sext i32 %63 to i64
  %65 = getelementptr inbounds i16, ptr %62, i64 %64
  %66 = load i16, ptr %65, align 2, !tbaa !105
  %67 = zext i16 %66 to i32
  %68 = load ptr, ptr %22, align 8, !tbaa !103
  %69 = load i32, ptr %27, align 4, !tbaa !37
  %70 = sext i32 %69 to i64
  %71 = getelementptr inbounds i16, ptr %68, i64 %70
  %72 = load i16, ptr %71, align 2, !tbaa !105
  %73 = zext i16 %72 to i32
  %74 = icmp sgt i32 %67, %73
  br i1 %74, label %75, label %109

75:                                               ; preds = %54
  %76 = load ptr, ptr %22, align 8, !tbaa !103
  %77 = load i32, ptr %27, align 4, !tbaa !37
  %78 = sext i32 %77 to i64
  %79 = getelementptr inbounds i16, ptr %76, i64 %78
  %80 = load i16, ptr %79, align 2, !tbaa !105
  %81 = zext i16 %80 to i32
  %82 = icmp eq i32 %81, 65535
  br i1 %82, label %83, label %84

83:                                               ; preds = %75
  br label %107

84:                                               ; preds = %75
  %85 = load ptr, ptr %21, align 8, !tbaa !103
  %86 = load i32, ptr %27, align 4, !tbaa !37
  %87 = sext i32 %86 to i64
  %88 = getelementptr inbounds i16, ptr %85, i64 %87
  %89 = load i16, ptr %88, align 2, !tbaa !105
  %90 = zext i16 %89 to i32
  %91 = load ptr, ptr %22, align 8, !tbaa !103
  %92 = load i32, ptr %27, align 4, !tbaa !37
  %93 = sext i32 %92 to i64
  %94 = getelementptr inbounds i16, ptr %91, i64 %93
  %95 = load i16, ptr %94, align 2, !tbaa !105
  %96 = zext i16 %95 to i32
  %97 = sub nsw i32 %90, %96
  %98 = mul nsw i32 %97, 65535
  %99 = load ptr, ptr %22, align 8, !tbaa !103
  %100 = load i32, ptr %27, align 4, !tbaa !37
  %101 = sext i32 %100 to i64
  %102 = getelementptr inbounds i16, ptr %99, i64 %101
  %103 = load i16, ptr %102, align 2, !tbaa !105
  %104 = zext i16 %103 to i32
  %105 = sub nsw i32 65535, %104
  %106 = sdiv i32 %98, %105
  br label %107

107:                                              ; preds = %84, %83
  %108 = phi i32 [ 0, %83 ], [ %106, %84 ]
  br label %142

109:                                              ; preds = %54
  %110 = load ptr, ptr %22, align 8, !tbaa !103
  %111 = load i32, ptr %27, align 4, !tbaa !37
  %112 = sext i32 %111 to i64
  %113 = getelementptr inbounds i16, ptr %110, i64 %112
  %114 = load i16, ptr %113, align 2, !tbaa !105
  %115 = zext i16 %114 to i32
  %116 = icmp eq i32 %115, 0
  br i1 %116, label %117, label %118

117:                                              ; preds = %109
  br label %140

118:                                              ; preds = %109
  %119 = load ptr, ptr %22, align 8, !tbaa !103
  %120 = load i32, ptr %27, align 4, !tbaa !37
  %121 = sext i32 %120 to i64
  %122 = getelementptr inbounds i16, ptr %119, i64 %121
  %123 = load i16, ptr %122, align 2, !tbaa !105
  %124 = zext i16 %123 to i32
  %125 = load ptr, ptr %21, align 8, !tbaa !103
  %126 = load i32, ptr %27, align 4, !tbaa !37
  %127 = sext i32 %126 to i64
  %128 = getelementptr inbounds i16, ptr %125, i64 %127
  %129 = load i16, ptr %128, align 2, !tbaa !105
  %130 = zext i16 %129 to i32
  %131 = sub nsw i32 %124, %130
  %132 = mul nsw i32 %131, 65535
  %133 = load ptr, ptr %22, align 8, !tbaa !103
  %134 = load i32, ptr %27, align 4, !tbaa !37
  %135 = sext i32 %134 to i64
  %136 = getelementptr inbounds i16, ptr %133, i64 %135
  %137 = load i16, ptr %136, align 2, !tbaa !105
  %138 = zext i16 %137 to i32
  %139 = sdiv i32 %132, %138
  br label %140

140:                                              ; preds = %118, %117
  %141 = phi i32 [ 0, %117 ], [ %139, %118 ]
  br label %142

142:                                              ; preds = %140, %107
  %143 = phi i32 [ %108, %107 ], [ %141, %140 ]
  %144 = call i32 @av_clip_uintp2_c(i32 noundef %143, i32 noundef 16) #15
  %145 = load ptr, ptr %21, align 8, !tbaa !103
  %146 = load i32, ptr %27, align 4, !tbaa !37
  %147 = sext i32 %146 to i64
  %148 = getelementptr inbounds i16, ptr %145, i64 %147
  %149 = load i16, ptr %148, align 2, !tbaa !105
  %150 = zext i16 %149 to i32
  %151 = sub nsw i32 %144, %150
  %152 = sitofp i32 %151 to float
  %153 = load float, ptr %24, align 4, !tbaa !99
  %154 = call nsz float @llvm.fmuladd.f32(float %152, float %153, float %61)
  %155 = fptoui float %154 to i16
  %156 = load ptr, ptr %23, align 8, !tbaa !103
  %157 = load i32, ptr %27, align 4, !tbaa !37
  %158 = sext i32 %157 to i64
  %159 = getelementptr inbounds i16, ptr %156, i64 %158
  store i16 %155, ptr %159, align 2, !tbaa !105
  br label %160

160:                                              ; preds = %142
  %161 = load i32, ptr %27, align 4, !tbaa !37
  %162 = add nsw i32 %161, 1
  store i32 %162, ptr %27, align 4, !tbaa !37
  br label %48, !llvm.loop !570

163:                                              ; preds = %53
  %164 = load i64, ptr %16, align 8, !tbaa !88
  %165 = load ptr, ptr %23, align 8, !tbaa !103
  %166 = getelementptr inbounds i16, ptr %165, i64 %164
  store ptr %166, ptr %23, align 8, !tbaa !103
  %167 = load i64, ptr %12, align 8, !tbaa !88
  %168 = load ptr, ptr %21, align 8, !tbaa !103
  %169 = getelementptr inbounds i16, ptr %168, i64 %167
  store ptr %169, ptr %21, align 8, !tbaa !103
  %170 = load i64, ptr %14, align 8, !tbaa !88
  %171 = load ptr, ptr %22, align 8, !tbaa !103
  %172 = getelementptr inbounds i16, ptr %171, i64 %170
  store ptr %172, ptr %22, align 8, !tbaa !103
  br label %173

173:                                              ; preds = %163
  %174 = load i32, ptr %25, align 4, !tbaa !37
  %175 = add nsw i32 %174, 1
  store i32 %175, ptr %25, align 4, !tbaa !37
  br label %41, !llvm.loop !571

176:                                              ; preds = %46
  call void @llvm.lifetime.end.p0(i64 4, ptr %24) #12
  call void @llvm.lifetime.end.p0(i64 8, ptr %23) #12
  call void @llvm.lifetime.end.p0(i64 8, ptr %22) #12
  call void @llvm.lifetime.end.p0(i64 8, ptr %21) #12
  ret void
}